; Function Attrs: nounwind uwtable
define hidden zeroext i1 @SDL_GetSurfaceClipRect_REAL(ptr noundef readonly captures(address_is_null) %0, ptr noundef writeonly captures(address_is_null) %1) local_unnamed_addr #2 {
  %.not.i = icmp eq ptr %0, null
  br i1 %.not.i, label %SDL_SurfaceValid.exit.thread, label %SDL_SurfaceValid.exit

SDL_SurfaceValid.exit:                            ; preds = %2
  %3 = getelementptr inbounds nuw i8, ptr %0, i64 40
  %4 = load ptr, ptr %3, align 8
  %5 = icmp eq ptr %4, @SDL_surface_magic
  br i1 %5, label %9, label %SDL_SurfaceValid.exit.thread

SDL_SurfaceValid.exit.thread:                     ; preds = %2, %SDL_SurfaceValid.exit
  %.not = icmp eq ptr %1, null
  br i1 %.not, label %7, label %6

6:                                                ; preds = %SDL_SurfaceValid.exit.thread
  tail call void @llvm.memset.p0.i64(ptr noundef nonnull align 4 dereferenceable(16) %1, i8 0, i64 16, i1 false)
  br label %7

7:                                                ; preds = %6, %SDL_SurfaceValid.exit.thread
  %8 = tail call zeroext i1 (ptr, ...) @SDL_SetError_REAL(ptr noundef nonnull @.str, ptr noundef nonnull @.str.5) #10
  br label %14

9:                                                ; preds = %SDL_SurfaceValid.exit
  %.not8 = icmp eq ptr %1, null
  br i1 %.not8, label %10, label %12

10:                                               ; preds = %9
  %11 = tail call zeroext i1 (ptr, ...) @SDL_SetError_REAL(ptr noundef nonnull @.str, ptr noundef nonnull @.str.15) #10
  br label %14

12:                                               ; preds = %9
  %13 = getelementptr inbounds nuw i8, ptr %0, i64 100
  tail call void @llvm.memcpy.p0.p0.i64(ptr noundef nonnull align 4 dereferenceable(16) %1, ptr noundef nonnull align 4 dereferenceable(16) %13, i64 16, i1 false)
  br label %14

14:                                               ; preds = %12, %10, %7
  %.0 = phi i1 [ true, %12 ], [ %11, %10 ], [ %8, %7 ]
  ret i1 %.0
}